target datalayout = "e-m:e-p270:32:32-p271:32:32-p272:64:64-i64:64-i128:128-f80:128-n8:16:32:64-S128"
target triple = "x86_64-unknown-linux-gnu"

%class.symbol = type { ptr }
%"class.q::mbqi" = type { ptr, ptr, ptr, %"struct.q::mbqi::stats", %"class.q::model_fixer", %class.ref, %"struct.sat::no_drat_params", %class.ref.12, %class.scoped_ptr_vector.13, %class.scoped_ptr_vector.16, %class.obj_map.19, i32, i32, i32, i32, i32, i32, %class.vector.24, %class.vector.25 }
%"struct.q::mbqi::stats" = type { i32, i32 }
%"class.q::model_fixer" = type { %class.quantifier2macro_infos, ptr, ptr, ptr, %class.obj_map, %class.func_decl_dependencies, %class.obj_map.5, %class.map, %class.scoped_ptr_vector }
%class.quantifier2macro_infos = type { ptr }
%class.obj_map = type { %class.core_hashtable }
%class.core_hashtable = type <{ ptr, i32, i32, i32, [4 x i8] }>
%class.func_decl_dependencies = type { ptr, %class.obj_map.0 }
%class.obj_map.0 = type { %class.core_hashtable.1 }
%class.core_hashtable.1 = type <{ ptr, i32, i32, i32, [4 x i8] }>
%class.obj_map.5 = type { %class.core_hashtable.6 }
%class.core_hashtable.6 = type <{ ptr, i32, i32, i32, [4 x i8] }>
%class.map = type { %class.table2map }
%class.table2map = type { %class.core_hashtable.10 }
%class.core_hashtable.10 = type <{ ptr, i32, i32, i32, [4 x i8] }>
%class.scoped_ptr_vector = type { %class.ptr_vector }
%class.ptr_vector = type { %class.vector }
%class.vector = type { ptr }
%class.ref = type { ptr }
%"struct.sat::no_drat_params" = type { %class.params_ref }
%class.params_ref = type { ptr }
%class.ref.12 = type { ptr }
%class.scoped_ptr_vector.13 = type { %class.ptr_vector.14 }
%class.ptr_vector.14 = type { %class.vector.15 }
%class.vector.15 = type { ptr }
%class.scoped_ptr_vector.16 = type { %class.ptr_vector.17 }
%class.ptr_vector.17 = type { %class.vector.18 }
%class.vector.18 = type { ptr }
%class.obj_map.19 = type { %class.core_hashtable.20 }
%class.core_hashtable.20 = type <{ ptr, i32, i32, i32, [4 x i8] }>
%class.vector.24 = type { ptr }
%class.vector.25 = type { ptr }
%class.ptr_vector.57 = type { %class.vector.58 }
%class.vector.58 = type { ptr }
%class.obj_ref.261 = type { ptr, ptr }
%class.ref_vector = type { %class.ref_vector_core }
%class.ref_vector_core = type { %class.ref_manager_wrapper, %class.ptr_vector.57 }
%class.ref_manager_wrapper = type { ptr }
%class.check_sat_result = type { ptr, ptr, %class.ref_vector, %class.obj_ref.261, i32, i32, %class.ref.375, double }
%class.ref.375 = type { ptr }

@_ZN6symbol4nullE = external global %class.symbol, align 8

; Function Attrs: mustprogress uwtable
define linkonce_odr hidden void @_Z7deallocI16check_sat_resultEvPT_(ptr noundef %ptr) #5 comdat {
entry:
  %ptr.addr = alloca ptr, align 8
  store ptr %ptr, ptr %ptr.addr, align 8
  %0 = load ptr, ptr %ptr.addr, align 8
  %cmp = icmp eq ptr %0, null
  br i1 %cmp, label %if.then, label %if.end

if.then:                                          ; preds = %entry
  br label %return

if.end:                                           ; preds = %entry
  %1 = load ptr, ptr %ptr.addr, align 8
  %vtable = load ptr, ptr %1, align 8
  %vfn = getelementptr inbounds ptr, ptr %vtable, i64 0
  %2 = load ptr, ptr %vfn, align 8
  call void %2(ptr noundef nonnull align 8 dereferenceable(72) %1) #3
  %3 = load ptr, ptr %ptr.addr, align 8
  call void @_ZN6memory10deallocateEPv(ptr noundef %3)
  br label %return

return:                                           ; preds = %if.end, %if.then
  ret void
}

; Function Attrs: mustprogress uwtable
define linkonce_odr hidden void @_ZN16check_sat_result7dec_refEv(ptr noundef nonnull align 8 dereferenceable(72) %this) #5 comdat align 2 {
entry:
  %this.addr = alloca ptr, align 8
  store ptr %this, ptr %this.addr, align 8
  %this1 = load ptr, ptr %this.addr, align 8
  %m_ref_count = getelementptr inbounds %class.check_sat_result, ptr %this1, i32 0, i32 4
  %0 = load i32, ptr %m_ref_count, align 8
  %dec = add i32 %0, -1
  store i32 %dec, ptr %m_ref_count, align 8
  %m_ref_count2 = getelementptr inbounds %class.check_sat_result, ptr %this1, i32 0, i32 4
  %1 = load i32, ptr %m_ref_count2, align 8
  %cmp = icmp eq i32 %1, 0
  br i1 %cmp, label %if.then, label %if.end

if.then:                                          ; preds = %entry
  call void @_Z7deallocI16check_sat_resultEvPT_(ptr noundef %this1)
  br label %if.end

if.end:                                           ; preds = %if.then, %entry
  ret void
}

; Function Attrs: mustprogress uwtable
define linkonce_odr hidden void @_ZN3refI6solverE7dec_refEv(ptr noundef nonnull align 8 dereferenceable(8) %this) #5 comdat align 2 {
entry:
  %this.addr = alloca ptr, align 8
  store ptr %this, ptr %this.addr, align 8
  %this1 = load ptr, ptr %this.addr, align 8
  %m_ptr = getelementptr inbounds %class.ref.12, ptr %this1, i32 0, i32 0
  %0 = load ptr, ptr %m_ptr, align 8
  %tobool = icmp ne ptr %0, null
  br i1 %tobool, label %if.then, label %if.end

if.then:                                          ; preds = %entry
  %m_ptr2 = getelementptr inbounds %class.ref.12, ptr %this1, i32 0, i32 0
  %1 = load ptr, ptr %m_ptr2, align 8
  call void @_ZN16check_sat_result7dec_refEv(ptr noundef nonnull align 8 dereferenceable(72) %1)
  br label %if.end

if.end:                                           ; preds = %if.then, %entry
  ret void
}

; Function Attrs: mustprogress nounwind uwtable
define linkonce_odr hidden void @_ZN16check_sat_result7inc_refEv(ptr noundef nonnull align 8 dereferenceable(72) %this) #4 comdat align 2 {
entry:
  %this.addr = alloca ptr, align 8
  store ptr %this, ptr %this.addr, align 8
  %this1 = load ptr, ptr %this.addr, align 8
  %m_ref_count = getelementptr inbounds %class.check_sat_result, ptr %this1, i32 0, i32 4
  %0 = load i32, ptr %m_ref_count, align 8
  %inc = add i32 %0, 1
  store i32 %inc, ptr %m_ref_count, align 8
  ret void
}

; Function Attrs: mustprogress uwtable
define linkonce_odr hidden noundef nonnull align 8 dereferenceable(8) ptr @_ZN3refI6solverEaSEPS0_(ptr noundef nonnull align 8 dereferenceable(8) %this, ptr noundef %ptr) #5 comdat align 2 {
entry:
  %this.addr = alloca ptr, align 8
  %ptr.addr = alloca ptr, align 8
  store ptr %this, ptr %this.addr, align 8
  store ptr %ptr, ptr %ptr.addr, align 8
  %this1 = load ptr, ptr %this.addr, align 8
  %0 = load ptr, ptr %ptr.addr, align 8
  %tobool = icmp ne ptr %0, null
  br i1 %tobool, label %if.then, label %if.end

if.then:                                          ; preds = %entry
  %1 = load ptr, ptr %ptr.addr, align 8
  call void @_ZN16check_sat_result7inc_refEv(ptr noundef nonnull align 8 dereferenceable(72) %1)
  br label %if.end

if.end:                                           ; preds = %if.then, %entry
  call void @_ZN3refI6solverE7dec_refEv(ptr noundef nonnull align 8 dereferenceable(8) %this1)
  %2 = load ptr, ptr %ptr.addr, align 8
  %m_ptr = getelementptr inbounds %class.ref.12, ptr %this1, i32 0, i32 0
  store ptr %2, ptr %m_ptr, align 8
  ret ptr %this1
}

; Function Attrs: mustprogress nounwind uwtable
define linkonce_odr hidden noundef zeroext i1 @_ZNK3refI6solverEntEv(ptr noundef nonnull align 8 dereferenceable(8) %this) #4 comdat align 2 {
entry:
  %this.addr = alloca ptr, align 8
  store ptr %this, ptr %this.addr, align 8
  %this1 = load ptr, ptr %this.addr, align 8
  %m_ptr = getelementptr inbounds %class.ref.12, ptr %this1, i32 0, i32 0
  %0 = load ptr, ptr %m_ptr, align 8
  %cmp = icmp eq ptr %0, null
  ret i1 %cmp
}

; Function Attrs: mustprogress uwtable
define hidden void @_ZN1q4mbqi11init_solverEv(ptr noundef nonnull align 8 dereferenceable(280) %this) #5 align 2 {
entry:
  %this.addr = alloca ptr, align 8
  store ptr %this, ptr %this.addr, align 8
  %this1 = load ptr, ptr %this.addr, align 8
  %m_solver = getelementptr inbounds %"class.q::mbqi", ptr %this1, i32 0, i32 7
  %call = call noundef zeroext i1 @_ZNK3refI6solverEntEv(ptr noundef nonnull align 8 dereferenceable(8) %m_solver)
  br i1 %call, label %if.then, label %if.end

if.then:                                          ; preds = %entry
  %m = getelementptr inbounds %"class.q::mbqi", ptr %this1, i32 0, i32 2
  %0 = load ptr, ptr %m, align 8
  %m_no_drat_params = getelementptr inbounds %"class.q::mbqi", ptr %this1, i32 0, i32 6
  %call2 = call noundef ptr @_Z14mk_smt2_solverR11ast_managerRK10params_refRK6symbol(ptr noundef nonnull align 8 dereferenceable(976) %0, ptr noundef nonnull align 8 dereferenceable(8) %m_no_drat_params, ptr noundef nonnull align 8 dereferenceable(8) @_ZN6symbol4nullE)
  %m_solver3 = getelementptr inbounds %"class.q::mbqi", ptr %this1, i32 0, i32 7
  %call4 = call noundef nonnull align 8 dereferenceable(8) ptr @_ZN3refI6solverEaSEPS0_(ptr noundef nonnull align 8 dereferenceable(8) %m_solver3, ptr noundef %call2)
  br label %if.end

if.end:                                           ; preds = %if.then, %entry
  ret void
}