; Function Attrs: mustprogress uwtable
define hidden void @_ZN1q4mbqi11init_solverEv(ptr noundef nonnull align 8 dereferenceable(280) %this) local_unnamed_addr #3 align 2 {
entry:
  %m_solver = getelementptr inbounds i8, ptr %this, i64 192
  %0 = load ptr, ptr %m_solver, align 8
  %cmp.i = icmp eq ptr %0, null
  br i1 %cmp.i, label %if.then, label %if.end

if.then:                                          ; preds = %entry
  %m = getelementptr inbounds i8, ptr %this, i64 16
  %1 = load ptr, ptr %m, align 8
  %m_no_drat_params = getelementptr inbounds i8, ptr %this, i64 184
  %call2 = tail call noundef ptr @_Z14mk_smt2_solverR11ast_managerRK10params_refRK6symbol(ptr noundef nonnull align 8 dereferenceable(976) %1, ptr noundef nonnull align 8 dereferenceable(8) %m_no_drat_params, ptr noundef nonnull align 8 dereferenceable(8) @_ZN6symbol4nullE)
  %tobool.not.i = icmp eq ptr %call2, null
  br i1 %tobool.not.i, label %if.end.i, label %if.then.i

if.then.i:                                        ; preds = %if.then
  %m_ref_count.i.i = getelementptr inbounds i8, ptr %call2, i64 48
  %2 = load i32, ptr %m_ref_count.i.i, align 8
  %inc.i.i = add i32 %2, 1
  store i32 %inc.i.i, ptr %m_ref_count.i.i, align 8
  br label %if.end.i

if.end.i:                                         ; preds = %if.then.i, %if.then
  %3 = load ptr, ptr %m_solver, align 8
  %tobool.not.i.i = icmp eq ptr %3, null
  br i1 %tobool.not.i.i, label %_ZN3refI6solverEaSEPS0_.exit, label %if.then.i.i

if.then.i.i:                                      ; preds = %if.end.i
  %m_ref_count.i.i.i = getelementptr inbounds i8, ptr %3, i64 48
  %4 = load i32, ptr %m_ref_count.i.i.i, align 8
  %dec.i.i.i = add i32 %4, -1
  store i32 %dec.i.i.i, ptr %m_ref_count.i.i.i, align 8
  %cmp.i.i.i = icmp eq i32 %dec.i.i.i, 0
  br i1 %cmp.i.i.i, label %if.then.i.i.i, label %_ZN3refI6solverEaSEPS0_.exit

if.then.i.i.i:                                    ; preds = %if.then.i.i
  %vtable.i.i.i.i = load ptr, ptr %3, align 8
  %5 = load ptr, ptr %vtable.i.i.i.i, align 8
  tail call void %5(ptr noundef nonnull align 8 dereferenceable(72) %3) #18
  tail call void @_ZN6memory10deallocateEPv(ptr noundef nonnull %3)
  br label %_ZN3refI6solverEaSEPS0_.exit

_ZN3refI6solverEaSEPS0_.exit:                     ; preds = %if.end.i, %if.then.i.i, %if.then.i.i.i
  store ptr %call2, ptr %m_solver, align 8
  br label %if.end

if.end:                                           ; preds = %_ZN3refI6solverEaSEPS0_.exit, %entry
  ret void
}